#include <math.h>
#include <stdio.h>
#include <stdlib.h>
#include <string.h>

int main()
{
    int n,a[300],*p[300],i,j,k,m;
	scanf("%d",&n);
	p[0]=a;
	for(i=0;i<=n-1;i++)
	{scanf("%d",p[0]+i);}
    for(i=1,j=1;i<=n-1;i++)
	{
      for(k=0;k<=j-1;k++)
	  {if(a[i]==*p[k])
	  {m=0;break;}
	  else
	  m=1;}
	  if (m)
	  {p[j]=p[0]+i;j++;}
	}
	for(i=0;i<=j-2;i++)
	{printf("%d,",*p[i]);}
	printf("%d",*p[j-1]);
}